; Function Attrs: nounwind uwtable
define hidden float @SDL_GetSurfaceHDRHeadroom(ptr noundef readonly captures(address_is_null) %0, i32 noundef %1) local_unnamed_addr #2 {
  %3 = lshr i32 %1, 5
  %4 = and i32 %3, 31
  switch i32 %4, label %13 [
    i32 16, label %5
    i32 8, label %5
  ]

5:                                                ; preds = %2, %2
  %.not.i = icmp eq ptr %0, null
  br i1 %.not.i, label %SDL_SurfaceValid.exit.thread, label %SDL_SurfaceValid.exit

SDL_SurfaceValid.exit:                            ; preds = %5
  %6 = getelementptr inbounds nuw i8, ptr %0, i64 40
  %7 = load ptr, ptr %6, align 8
  %8 = icmp eq ptr %7, @SDL_surface_magic
  br i1 %8, label %9, label %SDL_SurfaceValid.exit.thread

9:                                                ; preds = %SDL_SurfaceValid.exit
  %10 = getelementptr inbounds nuw i8, ptr %0, i64 52
  %11 = load i32, ptr %10, align 4
  br label %SDL_SurfaceValid.exit.thread

SDL_SurfaceValid.exit.thread:                     ; preds = %5, %SDL_SurfaceValid.exit, %9
  %.08 = phi i32 [ %11, %9 ], [ 0, %SDL_SurfaceValid.exit ], [ 0, %5 ]
  %12 = tail call float @SDL_GetFloatProperty_REAL(i32 noundef %.08, ptr noundef nonnull @.str.7, float noundef 0.000000e+00) #10
  br label %13

13:                                               ; preds = %2, %SDL_SurfaceValid.exit.thread
  %.0 = phi float [ %12, %SDL_SurfaceValid.exit.thread ], [ 1.000000e+00, %2 ]
  ret float %.0
}